; Function Attrs: mustprogress nounwind sspstrong willreturn uwtable
define hidden range(i32 0, 2) i32 @FLAC__bitwriter_get_buffer(ptr noundef captures(none) %bw, ptr noundef writeonly captures(none) %buffer, ptr noundef writeonly captures(none) %bytes) local_unnamed_addr #2 {
entry:
  %bits = getelementptr inbounds nuw i8, ptr %bw, i64 24
  %0 = load i32, ptr %bits, align 8
  %and = and i32 %0, 7
  %tobool.not = icmp eq i32 %and, 0
  br i1 %tobool.not, label %if.end, label %return

if.end:                                           ; preds = %entry
  %tobool2.not = icmp eq i32 %0, 0
  br i1 %tobool2.not, label %if.end10, label %if.then3

if.then3:                                         ; preds = %if.end
  %words = getelementptr inbounds nuw i8, ptr %bw, i64 20
  %1 = load i32, ptr %words, align 4
  %capacity = getelementptr inbounds nuw i8, ptr %bw, i64 16
  %2 = load i32, ptr %capacity, align 8
  %cmp = icmp eq i32 %1, %2
  br i1 %cmp, label %land.lhs.true, label %if.end6

land.lhs.true:                                    ; preds = %if.then3
  %sub.i = add i32 %0, 127
  %div15.i = lshr i32 %sub.i, 6
  %add2.i = add i32 %1, %div15.i
  %cmp.not.i = icmp ult i32 %1, %add2.i
  br i1 %cmp.not.i, label %if.end.i, label %if.end6

if.end.i:                                         ; preds = %land.lhs.true
  %conv.i = zext i32 %add2.i to i64
  %mul.i = shl nuw nsw i64 %conv.i, 3
  %3 = load i32, ptr @FLAC__STREAM_METADATA_LENGTH_LEN, align 4
  %shl.i = shl nuw i32 1, %3
  %conv3.i = zext i32 %shl.i to i64
  %cmp4.i = icmp samesign ugt i64 %mul.i, %conv3.i
  br i1 %cmp4.i, label %return, label %if.end7.i

if.end7.i:                                        ; preds = %if.end.i
  %rem.i = and i32 %div15.i, 511
  %tobool.not.i = icmp eq i32 %rem.i, 0
  %reass.sub.i = add i32 %add2.i, 512
  %add15.i = sub i32 %reass.sub.i, %rem.i
  %new_capacity.0.i = select i1 %tobool.not.i, i32 %add2.i, i32 %add15.i
  %4 = load ptr, ptr %bw, align 8
  %conv17.i = zext i32 %new_capacity.0.i to i64
  %mul.i.i = shl nuw nsw i64 %conv17.i, 3
  %call4.i.i = tail call noalias noundef ptr @realloc(ptr noundef %4, i64 noundef %mul.i.i) #17
  %cmp18.i = icmp eq ptr %call4.i.i, null
  br i1 %cmp18.i, label %return, label %if.end21.i

if.end21.i:                                       ; preds = %if.end7.i
  store ptr %call4.i.i, ptr %bw, align 8
  store i32 %new_capacity.0.i, ptr %capacity, align 8
  %.pre = load i32, ptr %bits, align 8
  %.pre14 = load i32, ptr %words, align 4
  br label %if.end6

if.end6:                                          ; preds = %if.end21.i, %land.lhs.true, %if.then3
  %5 = phi i32 [ %.pre14, %if.end21.i ], [ %1, %land.lhs.true ], [ %1, %if.then3 ]
  %6 = phi i32 [ %.pre, %if.end21.i ], [ %0, %land.lhs.true ], [ %0, %if.then3 ]
  %accum = getelementptr inbounds nuw i8, ptr %bw, i64 8
  %7 = load i64, ptr %accum, align 8
  %sub = sub i32 64, %6
  %sh_prom = zext nneg i32 %sub to i64
  %shl = shl i64 %7, %sh_prom
  %8 = tail call i64 @llvm.bswap.i64(i64 %shl)
  %9 = load ptr, ptr %bw, align 8
  %idxprom = zext i32 %5 to i64
  %arrayidx = getelementptr inbounds nuw i64, ptr %9, i64 %idxprom
  store i64 %8, ptr %arrayidx, align 8
  br label %if.end10

if.end10:                                         ; preds = %if.end6, %if.end
  %10 = load ptr, ptr %bw, align 8
  store ptr %10, ptr %buffer, align 8
  %words12 = getelementptr inbounds nuw i8, ptr %bw, i64 20
  %11 = load i32, ptr %words12, align 4
  %mul = shl i32 %11, 3
  %12 = load i32, ptr %bits, align 8
  %shr = lshr i32 %12, 3
  %add = add i32 %shr, %mul
  %conv = zext i32 %add to i64
  store i64 %conv, ptr %bytes, align 8
  br label %return

return:                                           ; preds = %if.end7.i, %if.end.i, %entry, %if.end10
  %retval.0 = phi i32 [ 1, %if.end10 ], [ 0, %entry ], [ 0, %if.end.i ], [ 0, %if.end7.i ]
  ret i32 %retval.0
}